; Function Attrs: nounwind uwtable
define hidden i32 @SDL_MapSurfaceRGBA_REAL(ptr noundef readonly captures(address_is_null) %0, i8 noundef zeroext %1, i8 noundef zeroext %2, i8 noundef zeroext %3, i8 noundef zeroext %4) local_unnamed_addr #2 {
  %.not.i = icmp eq ptr %0, null
  br i1 %.not.i, label %SDL_SurfaceValid.exit.thread, label %SDL_SurfaceValid.exit

SDL_SurfaceValid.exit:                            ; preds = %5
  %6 = getelementptr inbounds nuw i8, ptr %0, i64 40
  %7 = load ptr, ptr %6, align 8
  %8 = icmp eq ptr %7, @SDL_surface_magic
  br i1 %8, label %10, label %SDL_SurfaceValid.exit.thread

SDL_SurfaceValid.exit.thread:                     ; preds = %5, %SDL_SurfaceValid.exit
  %9 = tail call zeroext i1 (ptr, ...) @SDL_SetError_REAL(ptr noundef nonnull @.str, ptr noundef nonnull @.str.5) #10
  br label %16

10:                                               ; preds = %SDL_SurfaceValid.exit
  %11 = getelementptr inbounds nuw i8, ptr %0, i64 56
  %12 = load ptr, ptr %11, align 8
  %13 = getelementptr inbounds nuw i8, ptr %0, i64 72
  %14 = load ptr, ptr %13, align 8
  %15 = tail call i32 @SDL_MapRGBA_REAL(ptr noundef %12, ptr noundef %14, i8 noundef zeroext %1, i8 noundef zeroext %2, i8 noundef zeroext %3, i8 noundef zeroext %4) #10
  br label %16

16:                                               ; preds = %10, %SDL_SurfaceValid.exit.thread
  %.0 = phi i32 [ %15, %10 ], [ 1, %SDL_SurfaceValid.exit.thread ]
  ret i32 %.0
}